target datalayout = "e-m:e-p270:32:32-p271:32:32-p272:64:64-i64:64-i128:128-f80:128-n8:16:32:64-S128"
target triple = "x86_64-pc-linux-gnu"

%class.RSEncode = type <{ %class.RSCoder, [4 x i8], ptr, ptr, i32, i32, i32, i32, i64, ptr, i32, [4 x i8] }>
%class.RSCoder = type <{ [512 x i32], [256 x i32], [1024 x i32], [256 x i32], i32, [256 x i32], i32, [512 x i32], i8, [3 x i8] }>

; Function Attrs: mustprogress uwtable
define void @_ZN8RSEncode9EncodeBufEv(ptr noundef nonnull align 8 dereferenceable(11332) %0) #0 align 2 {
  %2 = alloca ptr, align 8
  %3 = alloca i32, align 4
  %4 = alloca [256 x i8], align 16
  %5 = alloca [256 x i8], align 16
  %6 = alloca i32, align 4
  %7 = alloca i32, align 4
  store ptr %0, ptr %2, align 8
  %8 = load ptr, ptr %2, align 8
  %9 = getelementptr inbounds %class.RSEncode, ptr %8, i32 0, i32 4
  %10 = load i32, ptr %9, align 8
  store i32 %10, ptr %3, align 4
  br label %11

11:                                               ; preds = %72, %1
  %12 = load i32, ptr %3, align 4
  %13 = getelementptr inbounds %class.RSEncode, ptr %8, i32 0, i32 5
  %14 = load i32, ptr %13, align 4
  %15 = icmp slt i32 %12, %14
  br i1 %15, label %16, label %75

16:                                               ; preds = %11
  store i32 0, ptr %6, align 4
  br label %17

17:                                               ; preds = %38, %16
  %18 = load i32, ptr %6, align 4
  %19 = getelementptr inbounds %class.RSEncode, ptr %8, i32 0, i32 6
  %20 = load i32, ptr %19, align 8
  %21 = icmp slt i32 %18, %20
  br i1 %21, label %22, label %41

22:                                               ; preds = %17
  %23 = getelementptr inbounds %class.RSEncode, ptr %8, i32 0, i32 2
  %24 = load ptr, ptr %23, align 8
  %25 = load i32, ptr %6, align 4
  %26 = sext i32 %25 to i64
  %27 = getelementptr inbounds %class.RSEncode, ptr %8, i32 0, i32 8
  %28 = load i64, ptr %27, align 8
  %29 = mul i64 %26, %28
  %30 = load i32, ptr %3, align 4
  %31 = sext i32 %30 to i64
  %32 = add i64 %29, %31
  %33 = getelementptr inbounds i8, ptr %24, i64 %32
  %34 = load i8, ptr %33, align 1
  %35 = load i32, ptr %6, align 4
  %36 = sext i32 %35 to i64
  %37 = getelementptr inbounds [256 x i8], ptr %4, i64 0, i64 %36
  store i8 %34, ptr %37, align 1
  br label %38

38:                                               ; preds = %22
  %39 = load i32, ptr %6, align 4
  %40 = add nsw i32 %39, 1
  store i32 %40, ptr %6, align 4
  br label %17, !llvm.loop !6

41:                                               ; preds = %17
  %42 = getelementptr inbounds %class.RSEncode, ptr %8, i32 0, i32 0
  %43 = getelementptr inbounds [256 x i8], ptr %4, i64 0, i64 0
  %44 = getelementptr inbounds %class.RSEncode, ptr %8, i32 0, i32 6
  %45 = load i32, ptr %44, align 8
  %46 = getelementptr inbounds [256 x i8], ptr %5, i64 0, i64 0
  call void @_ZN7RSCoder6EncodeEPhiS0_(ptr noundef nonnull align 4 dereferenceable(11273) %42, ptr noundef %43, i32 noundef %45, ptr noundef %46)
  store i32 0, ptr %7, align 4
  br label %47

47:                                               ; preds = %68, %41
  %48 = load i32, ptr %7, align 4
  %49 = getelementptr inbounds %class.RSEncode, ptr %8, i32 0, i32 7
  %50 = load i32, ptr %49, align 4
  %51 = icmp slt i32 %48, %50
  br i1 %51, label %52, label %71

52:                                               ; preds = %47
  %53 = load i32, ptr %7, align 4
  %54 = sext i32 %53 to i64
  %55 = getelementptr inbounds [256 x i8], ptr %5, i64 0, i64 %54
  %56 = load i8, ptr %55, align 1
  %57 = getelementptr inbounds %class.RSEncode, ptr %8, i32 0, i32 3
  %58 = load ptr, ptr %57, align 8
  %59 = load i32, ptr %7, align 4
  %60 = sext i32 %59 to i64
  %61 = getelementptr inbounds %class.RSEncode, ptr %8, i32 0, i32 8
  %62 = load i64, ptr %61, align 8
  %63 = mul i64 %60, %62
  %64 = load i32, ptr %3, align 4
  %65 = sext i32 %64 to i64
  %66 = add i64 %63, %65
  %67 = getelementptr inbounds i8, ptr %58, i64 %66
  store i8 %56, ptr %67, align 1
  br label %68

68:                                               ; preds = %52
  %69 = load i32, ptr %7, align 4
  %70 = add nsw i32 %69, 1
  store i32 %70, ptr %7, align 4
  br label %47, !llvm.loop !7

71:                                               ; preds = %47
  br label %72

72:                                               ; preds = %71
  %73 = load i32, ptr %3, align 4
  %74 = add nsw i32 %73, 1
  store i32 %74, ptr %3, align 4
  br label %11, !llvm.loop !8

75:                                               ; preds = %11
  ret void
}