; Function Attrs: mustprogress uwtable
define void @_ZN8RSEncode9EncodeBufEv(ptr noundef nonnull align 8 dereferenceable(11332) %0) local_unnamed_addr #0 align 2 {
  %2 = alloca [256 x i8], align 16
  %3 = alloca [256 x i8], align 16
  %4 = getelementptr inbounds i8, ptr %0, i64 11296
  %5 = load i32, ptr %4, align 8
  %6 = getelementptr inbounds i8, ptr %0, i64 11300
  %7 = load i32, ptr %6, align 4
  %8 = icmp slt i32 %5, %7
  br i1 %8, label %.preheader.lr.ph, label %._crit_edge21

.preheader.lr.ph:                                 ; preds = %1
  %9 = getelementptr inbounds i8, ptr %0, i64 11304
  %10 = getelementptr inbounds i8, ptr %0, i64 11280
  %11 = getelementptr inbounds i8, ptr %0, i64 11312
  %12 = getelementptr inbounds i8, ptr %0, i64 11308
  %13 = getelementptr inbounds i8, ptr %0, i64 11288
  %14 = sext i32 %5 to i64
  br label %.preheader

.preheader:                                       ; preds = %.preheader.lr.ph, %._crit_edge19
  %indvars.iv26 = phi i64 [ %14, %.preheader.lr.ph ], [ %indvars.iv.next27, %._crit_edge19 ]
  %15 = load i32, ptr %9, align 8
  %16 = icmp sgt i32 %15, 0
  br i1 %16, label %.lr.ph, label %._crit_edge

.lr.ph:                                           ; preds = %.preheader
  %17 = load ptr, ptr %10, align 8
  %18 = load i64, ptr %11, align 8
  %invariant.gep = getelementptr i8, ptr %17, i64 %indvars.iv26
  %wide.trip.count = zext nneg i32 %15 to i64
  br label %19

19:                                               ; preds = %.lr.ph, %19
  %indvars.iv = phi i64 [ 0, %.lr.ph ], [ %indvars.iv.next, %19 ]
  %20 = mul i64 %18, %indvars.iv
  %gep = getelementptr i8, ptr %invariant.gep, i64 %20
  %21 = load i8, ptr %gep, align 1
  %22 = getelementptr inbounds [256 x i8], ptr %2, i64 0, i64 %indvars.iv
  store i8 %21, ptr %22, align 1
  %indvars.iv.next = add nuw nsw i64 %indvars.iv, 1
  %exitcond.not = icmp eq i64 %indvars.iv.next, %wide.trip.count
  br i1 %exitcond.not, label %._crit_edge, label %19, !llvm.loop !6

._crit_edge:                                      ; preds = %19, %.preheader
  call void @_ZN7RSCoder6EncodeEPhiS0_(ptr noundef nonnull align 4 dereferenceable(11273) %0, ptr noundef nonnull %2, i32 noundef %15, ptr noundef nonnull %3)
  %23 = load i32, ptr %12, align 4
  %24 = icmp sgt i32 %23, 0
  br i1 %24, label %.lr.ph18, label %._crit_edge19

.lr.ph18:                                         ; preds = %._crit_edge, %.lr.ph18
  %indvars.iv23 = phi i64 [ %indvars.iv.next24, %.lr.ph18 ], [ 0, %._crit_edge ]
  %25 = getelementptr inbounds [256 x i8], ptr %3, i64 0, i64 %indvars.iv23
  %26 = load i8, ptr %25, align 1
  %27 = load ptr, ptr %13, align 8
  %28 = load i64, ptr %11, align 8
  %29 = mul i64 %28, %indvars.iv23
  %30 = getelementptr i8, ptr %27, i64 %29
  %31 = getelementptr i8, ptr %30, i64 %indvars.iv26
  store i8 %26, ptr %31, align 1
  %indvars.iv.next24 = add nuw nsw i64 %indvars.iv23, 1
  %32 = load i32, ptr %12, align 4
  %33 = sext i32 %32 to i64
  %34 = icmp slt i64 %indvars.iv.next24, %33
  br i1 %34, label %.lr.ph18, label %._crit_edge19, !llvm.loop !7

._crit_edge19:                                    ; preds = %.lr.ph18, %._crit_edge
  %indvars.iv.next27 = add nsw i64 %indvars.iv26, 1
  %35 = load i32, ptr %6, align 4
  %36 = sext i32 %35 to i64
  %37 = icmp slt i64 %indvars.iv.next27, %36
  br i1 %37, label %.preheader, label %._crit_edge21, !llvm.loop !8

._crit_edge21:                                    ; preds = %._crit_edge19, %1
  ret void
}